ccopy_reg
_reconstructor
p0
(ctraits.trait_handlers
TraitListObject
p1
c__builtin__
list
p2
(lp3
Vfrom chaco.shell import plot, show
p4
aVplot(x)
p5
aVshow()
p6
aVfrom matplotlib.pyplot import plot, show
p7
aVplot(x)
p8
aVshow()
p9
aVimport numpy as np
p10
aVx = np.random.random((100,1))
p11
ag10
ag11
ag7
ag8
ag9
ag10
ag10
ag11
ag11
ag7
ag8
ag9
aVfor i in range(10):
p12
aV    print i
p13
aVfor i in range(10):
p14
aV    print i
p15
aVfor i in range(10):
p16
aV    print i
p17
aVfor i in range(10):
p18
aV    print i
p19
aVimport numpy as np
p20
aVfrom matplotlib.pyplot import imshow, show
p21
aVx = np.random.random((100,100))
p22
aVimshow(x)
p23
aVshow()
p24
aVfor i in range(10):
p25
aV    print i
p26
aVfor i in range(10):
p27
aV    print i
p28
aVfrom matplotlib.pyplot import imshow, show
p29
aVimport numpy as np
p30
aVx = np.random.random((100,100))
p31
aVimshow(x)
p32
aVshow()
p33
aVimport numpy as np
p34
aVx = np.random.random((10,10))
p35
aVfrom matplotlib.pyplot import imshow, show
p36
aVimshow(x)
p37
aVshow()
p38
ag34
ag35
ag36
ag37
ag34
ag38
aVimport numpy as np
p39
aVfrom matplotlib.pyplot import imshow, show
p40
aVx = np.random.random((100,100))
p41
aVimshow(x)
p42
aVshow()
p43
aVimport numpy as np
p44
aVfrom matplotlib.pyplot import imshow, show
p45
aVx = np.random.random((100,100))
p46
aVimshow(x)
p47
aVshow()
p48
aVx = range(10)
p49
aVfrom matplotlib.pyplot import imshow, show
p50
aVimshow(x)
p51
aVshow()
p52
aV
p53
ag53
aVprint len(x)
p54
aVprint x[0]
p55
aVprint type(x[0])
p56
ag53
aVprint len(x)
p57
aVprint x[0]
p58
aVprint type(x)
p59
aVprint type(x[0])
p60
aVx[0]
p61
aVx[0]
p62
aVx[0]
p63
ag53
aVfrom sklearn.feature_extraction.text import TfidfVectorizer
p64
aVvectorizer = TfidfVectorizer()
p65
aVx_train = vectorizer.fit_transform(corpus)
p66
aVdel TfidfVectorizer
p67
aVdel vectorizer
p68
aVprint x_train.shape
p69
ag53
aVfrom matplotlib.pyplot import plot, show
p70
ag53
aVplot(x,y, 'ro')
p71
aVshow()
p72
aVfrom matplotlib.pyplot import plot, show
p73
aVplot(x,y,'ro')
p74
aVshow()
p75
aVproc_text = []
p76
ag53
aVfor item in texts:
p77
aV    words = item.split(' ')
p78
aV    wordlist = []
p79
aV    for word in words:
p80
aV        if ('@' not in word) and ('#' not in word) and ('http' not in word):
p81
aV            wordlist.append(word)
p82
aV    s = ''
p83
aV    for word in wordlist:
p84
aV        s += word + ' '
p85
aV    proc_text.append(s)
p86
ag53
atp87
Rp88
(dp89
S'name_items'
p90
S'command_history_items'
p91
sS'name'
p92
S'command_history'
p93
sb.